target datalayout = "e-m:e-p270:32:32-p271:32:32-p272:64:64-i64:64-i128:128-f80:128-n8:16:32:64-S128"
target triple = "x86_64-pc-linux-gnu"

%struct.redisServer = type { i32, i64, ptr, ptr, ptr, i32, i32, i32, i32, i32, ptr, ptr, ptr, ptr, ptr, i32, i32, i32, i32, i64, i32, i32, i32, i32, ptr, i32, i32, [41 x i8], i32, i64, i32, i32, i32, ptr, ptr, i32, i32, i64, ptr, ptr, ptr, ptr, [2 x i32], i32, i32, i32, i32, i32, i32, [16 x ptr], i32, ptr, ptr, i32, [8 x %struct.connListener], i32, %struct.connListener, ptr, ptr, ptr, ptr, ptr, ptr, ptr, ptr, ptr, ptr, i32, ptr, i32, ptr, [3 x %struct.pause_event], [256 x i8], ptr, i64, i32, i32, [128 x i32], i32, i32, i64, i32, i32, i32, i32, i32, i64, i64, i64, i64, i64, i64, i64, i64, i64, i64, double, i64, i64, i64, i64, i64, i64, i64, i64, i64, i64, i64, i64, i64, i64, i64, i64, i64, i64, i64, i64, i64, double, i64, i64, i64, i64, i64, ptr, i64, i64, i64, %struct.malloc_stats, i64, i64, i64, i64, i64, i64, i64, i64, i64, i64, i64, i64, double, [4 x i64], i64, i64, i64, i64, [128 x i64], [128 x i64], i64, i64, [7 x %struct.anon], i64, i64, i64, i64, i64, i64, [4 x %struct.durationStats], i32, i32, i32, i32, i32, i32, i32, i32, i32, i32, i32, i32, i64, i32, i32, i32, i32, i64, i64, i32, i32, i32, i32, i32, ptr, [3 x %struct.clientBufferLimitsConfig], i32, i32, i32, ptr, i32, i32, i32, i32, i32, i32, ptr, ptr, i32, i32, i64, i64, i64, i64, i64, i32, i32, ptr, i32, i32, i64, i64, i64, i64, i64, i32, i32, i64, i32, i32, i32, i32, i32, i32, i32, i32, ptr, i32, i64, i64, i64, i64, i32, ptr, i32, ptr, i32, i32, i32, i64, i64, i64, i64, i32, i32, i32, i32, i32, i32, ptr, i32, i32, ptr, i32, i32, i32, [2 x i32], i32, %struct.redisOpArray, i32, ptr, i32, ptr, i32, i32, i32, i32, i32, i32, i32, [41 x i8], [41 x i8], i64, i64, i64, i64, i32, i32, ptr, i64, i64, %struct.replDataBuf, i64, i64, i32, i32, i32, i32, i32, i32, i32, i32, i32, i64, ptr, i64, ptr, ptr, ptr, i32, i32, ptr, ptr, i32, i32, i32, i64, i64, i64, i64, ptr, ptr, i32, ptr, i64, i32, i32, i32, i64, i32, i32, i32, i32, ptr, i32, i32, [41 x i8], i64, i32, ptr, i32, i32, i64, i64, i32, i32, i32, i32, i32, i64, [3 x i32], i32, i32, i32, [10 x i32], ptr, ptr, i32, i64, ptr, ptr, i32, i32, i32, i32, i64, i64, i64, i64, i64, i64, i64, i64, i64, i64, i32, i32, i64, i64, i32, i64, i64, i64, i64, i64, ptr, ptr, i32, ptr, i32, i32, i32, i32, i64, i64, ptr, ptr, i32, i32, i32, i32, i32, ptr, ptr, ptr, i32, i32, i32, i32, i32, i32, i32, i64, i32, i32, i64, i32, i32, i32, i32, i32, i32, i32, i64, ptr, ptr, i64, ptr, i32, %struct.aclInfo, i32, i64, i32, i32, i32, %struct.redisTLSContextConfig, ptr, ptr, ptr, ptr, ptr, i64, i32, ptr, i32, i32, i32, i64, i32, ptr }
%struct.connListener = type { [16 x i32], i32, ptr, i32, i32, ptr, ptr }
%struct.pause_event = type { i32, i64 }
%struct.malloc_stats = type { i64, i64, i64, i64, i64, i64, i64, i64, i64, i64, i64 }
%struct.anon = type { i64, i64, [16 x i64], i32 }
%struct.durationStats = type { i64, i64, i64 }
%struct.clientBufferLimitsConfig = type { i64, i64, i64 }
%struct.redisOpArray = type { ptr, i32, i32 }
%struct.replDataBuf = type { ptr, i64, i64, i64, i64 }
%struct.aclInfo = type { i64, i64, i64, i64 }
%struct.redisTLSContextConfig = type { ptr, ptr, ptr, ptr, ptr, ptr, ptr, ptr, ptr, ptr, ptr, ptr, i32, i32, i32, i32 }
%struct.redisDb = type { ptr, ptr, ptr, ptr, ptr, ptr, ptr, i32, i64, i64, ptr }
%struct.redisObject = type { i32, i32, ptr }
%struct.client = type { i64, i64, ptr, i8, i8, i8, i8, i32, ptr, ptr, ptr, ptr, ptr, i64, i64, i32, ptr, i32, i32, ptr, i64, ptr, ptr, ptr, ptr, ptr, i32, i32, i64, ptr, i64, ptr, i64, i64, i64, i32, ptr, i64, i64, i32, i32, i32, i32, i64, i64, ptr, i64, i64, i64, i64, i64, i64, i64, i64, [41 x i8], i32, ptr, i32, i32, i64, %struct.multiState, %struct.blockingState, i64, ptr, ptr, ptr, ptr, ptr, ptr, ptr, ptr, ptr, ptr, ptr, ptr, ptr, ptr, i64, ptr, i64, i32, ptr, ptr, ptr, i64, %struct.listNode, i64, i64, i32, i64, ptr }
%struct.multiState = type { ptr, i32, i32, i32, i64, i32 }
%struct.blockingState = type { i32, i64, i32, ptr, i32, i32, i64, ptr, ptr, i64 }
%struct.listNode = type { ptr, ptr, ptr }
%struct.redisCommand = type { ptr, ptr, ptr, ptr, i32, ptr, ptr, i32, ptr, i32, ptr, i32, ptr, i32, i64, i64, ptr, i32, ptr, i32, ptr, ptr, i64, i64, i64, i64, i32, ptr, ptr, %struct.keySpec, ptr, ptr, ptr }
%struct.keySpec = type { ptr, i64, i32, %union.anon, i32, %union.anon.2 }
%union.anon = type { %struct.anon.1 }
%struct.anon.1 = type { ptr, i32 }
%union.anon.2 = type { %struct.anon.3 }
%struct.anon.3 = type { i32, i32, i32 }

@server = external global %struct.redisServer, align 8
@.str = private unnamed_addr constant [8 x i8] c"keymiss\00", align 1

; Function Attrs: nounwind uwtable
define dso_local i32 @getKeySlot(ptr noundef %0) #0 {
  %2 = alloca i32, align 4
  %3 = alloca ptr, align 8
  store ptr %0, ptr %3, align 8, !tbaa !78
  %4 = load ptr, ptr getelementptr inbounds nuw (%struct.redisServer, ptr @server, i32 0, i32 63), align 8, !tbaa !53
  %5 = icmp ne ptr %4, null
  br i1 %5, label %6, label %21

6:                                                ; preds = %1
  %7 = load ptr, ptr getelementptr inbounds nuw (%struct.redisServer, ptr @server, i32 0, i32 63), align 8, !tbaa !53
  %8 = getelementptr inbounds nuw %struct.client, ptr %7, i32 0, i32 35
  %9 = load i32, ptr %8, align 8, !tbaa !86
  %10 = icmp sge i32 %9, 0
  br i1 %10, label %11, label %21

11:                                               ; preds = %6
  %12 = load ptr, ptr getelementptr inbounds nuw (%struct.redisServer, ptr @server, i32 0, i32 63), align 8, !tbaa !53
  %13 = getelementptr inbounds nuw %struct.client, ptr %12, i32 0, i32 1
  %14 = load i64, ptr %13, align 8, !tbaa !54
  %15 = and i64 %14, 536870912
  %16 = icmp ne i64 %15, 0
  br i1 %16, label %17, label %21

17:                                               ; preds = %11
  %18 = load ptr, ptr getelementptr inbounds nuw (%struct.redisServer, ptr @server, i32 0, i32 63), align 8, !tbaa !53
  %19 = getelementptr inbounds nuw %struct.client, ptr %18, i32 0, i32 35
  %20 = load i32, ptr %19, align 8, !tbaa !86
  store i32 %20, ptr %2, align 4
  br label %24

21:                                               ; preds = %11, %6, %1
  %22 = load ptr, ptr %3, align 8, !tbaa !78
  %23 = call i32 @calculateKeySlot(ptr noundef %22)
  store i32 %23, ptr %2, align 4
  br label %24

24:                                               ; preds = %21, %17
  %25 = load i32, ptr %2, align 4
  ret i32 %25
}

; Function Attrs: nounwind uwtable
define internal ptr @dbFindGeneric(ptr noundef %0, ptr noundef %1) #0 {
  %3 = alloca ptr, align 8
  %4 = alloca ptr, align 8
  store ptr %0, ptr %3, align 8, !tbaa !194
  store ptr %1, ptr %4, align 8, !tbaa !22
  %5 = load ptr, ptr %3, align 8, !tbaa !194
  %6 = load ptr, ptr %4, align 8, !tbaa !22
  %7 = call i32 @getKeySlot(ptr noundef %6)
  %8 = load ptr, ptr %4, align 8, !tbaa !22
  %9 = call ptr @kvstoreDictFind(ptr noundef %5, i32 noundef %7, ptr noundef %8)
  ret ptr %9
}

; Function Attrs: nounwind uwtable
define dso_local void @updateLFU(ptr noundef %0) #0 {
  %2 = alloca ptr, align 8
  %3 = alloca i64, align 8
  store ptr %0, ptr %2, align 8, !tbaa !5
  call void @llvm.lifetime.start.p0(i64 8, ptr %3) #15
  %4 = load ptr, ptr %2, align 8, !tbaa !5
  %5 = call i64 @LFUDecrAndReturn(ptr noundef %4)
  store i64 %5, ptr %3, align 8, !tbaa !10
  %6 = load i64, ptr %3, align 8, !tbaa !10
  %7 = trunc i64 %6 to i8
  %8 = call zeroext i8 @LFULogIncr(i8 noundef zeroext %7)
  %9 = zext i8 %8 to i64
  store i64 %9, ptr %3, align 8, !tbaa !10
  %10 = call i64 @LFUGetTimeInMinutes()
  %11 = shl i64 %10, 8
  %12 = load i64, ptr %3, align 8, !tbaa !10
  %13 = or i64 %11, %12
  %14 = trunc i64 %13 to i32
  %15 = load ptr, ptr %2, align 8, !tbaa !5
  %16 = load i32, ptr %15, align 8
  %17 = and i32 %14, 16777215
  %18 = shl i32 %17, 8
  %19 = and i32 %16, 255
  %20 = or i32 %19, %18
  store i32 %20, ptr %15, align 8
  call void @llvm.lifetime.end.p0(i64 8, ptr %3) #15
  ret void
}

; Function Attrs: nounwind uwtable
define dso_local ptr @dbFind(ptr noundef %0, ptr noundef %1) #0 {
  %3 = alloca ptr, align 8
  %4 = alloca ptr, align 8
  store ptr %0, ptr %3, align 8, !tbaa !12
  store ptr %1, ptr %4, align 8, !tbaa !22
  %5 = load ptr, ptr %3, align 8, !tbaa !12
  %6 = getelementptr inbounds nuw %struct.redisDb, ptr %5, i32 0, i32 0
  %7 = load ptr, ptr %6, align 8, !tbaa !16
  %8 = load ptr, ptr %4, align 8, !tbaa !22
  %9 = call ptr @dbFindGeneric(ptr noundef %7, ptr noundef %8)
  ret ptr %9
}

; Function Attrs: nounwind uwtable
define dso_local ptr @lookupKey(ptr noundef %0, ptr noundef %1, i32 noundef %2, ptr noundef %3) #0 {
  %5 = alloca ptr, align 8
  %6 = alloca ptr, align 8
  %7 = alloca i32, align 4
  %8 = alloca ptr, align 8
  %9 = alloca ptr, align 8
  %10 = alloca ptr, align 8
  %11 = alloca i32, align 4
  %12 = alloca i32, align 4
  store ptr %0, ptr %5, align 8, !tbaa !12
  store ptr %1, ptr %6, align 8, !tbaa !5
  store i32 %2, ptr %7, align 4, !tbaa !14
  store ptr %3, ptr %8, align 8, !tbaa !23
  call void @llvm.lifetime.start.p0(i64 8, ptr %9) #15
  %13 = load ptr, ptr %5, align 8, !tbaa !12
  %14 = load ptr, ptr %6, align 8, !tbaa !5
  %15 = getelementptr inbounds nuw %struct.redisObject, ptr %14, i32 0, i32 2
  %16 = load ptr, ptr %15, align 8, !tbaa !25
  %17 = call ptr @dbFind(ptr noundef %13, ptr noundef %16)
  store ptr %17, ptr %9, align 8, !tbaa !27
  call void @llvm.lifetime.start.p0(i64 8, ptr %10) #15
  store ptr null, ptr %10, align 8, !tbaa !5
  %18 = load ptr, ptr %9, align 8, !tbaa !27
  %19 = icmp ne ptr %18, null
  br i1 %19, label %20, label %62

20:                                               ; preds = %4
  %21 = load ptr, ptr %9, align 8, !tbaa !27
  %22 = call ptr @dictGetVal(ptr noundef %21)
  store ptr %22, ptr %10, align 8, !tbaa !5
  call void @llvm.lifetime.start.p0(i64 4, ptr %11) #15
  %23 = load ptr, ptr getelementptr inbounds nuw (%struct.redisServer, ptr @server, i32 0, i32 297), align 8, !tbaa !29
  %24 = icmp ne ptr %23, null
  br i1 %24, label %25, label %28

25:                                               ; preds = %20
  %26 = load i32, ptr getelementptr inbounds nuw (%struct.redisServer, ptr @server, i32 0, i32 315), align 4, !tbaa !52
  %27 = icmp ne i32 %26, 0
  br label %28

28:                                               ; preds = %25, %20
  %29 = phi i1 [ false, %20 ], [ %27, %25 ]
  %30 = zext i1 %29 to i32
  store i32 %30, ptr %11, align 4, !tbaa !14
  call void @llvm.lifetime.start.p0(i64 4, ptr %12) #15
  store i32 0, ptr %12, align 4, !tbaa !14
  %31 = load i32, ptr %7, align 4, !tbaa !14
  %32 = and i32 %31, 8
  %33 = icmp ne i32 %32, 0
  br i1 %33, label %34, label %40

34:                                               ; preds = %28
  %35 = load i32, ptr %11, align 4, !tbaa !14
  %36 = icmp ne i32 %35, 0
  br i1 %36, label %40, label %37

37:                                               ; preds = %34
  %38 = load i32, ptr %12, align 4, !tbaa !14
  %39 = or i32 %38, 1
  store i32 %39, ptr %12, align 4, !tbaa !14
  br label %40

40:                                               ; preds = %37, %34, %28
  %41 = load i32, ptr %7, align 4, !tbaa !14
  %42 = and i32 %41, 16
  %43 = icmp ne i32 %42, 0
  br i1 %43, label %44, label %47

44:                                               ; preds = %40
  %45 = load i32, ptr %12, align 4, !tbaa !14
  %46 = or i32 %45, 2
  store i32 %46, ptr %12, align 4, !tbaa !14
  br label %47

47:                                               ; preds = %44, %40
  %48 = load i32, ptr %7, align 4, !tbaa !14
  %49 = and i32 %48, 32
  %50 = icmp ne i32 %49, 0
  br i1 %50, label %51, label %54

51:                                               ; preds = %47
  %52 = load i32, ptr %12, align 4, !tbaa !14
  %53 = or i32 %52, 4
  store i32 %53, ptr %12, align 4, !tbaa !14
  br label %54

54:                                               ; preds = %51, %47
  %55 = load ptr, ptr %5, align 8, !tbaa !12
  %56 = load ptr, ptr %6, align 8, !tbaa !5
  %57 = load i32, ptr %12, align 4, !tbaa !14
  %58 = call i32 @expireIfNeeded(ptr noundef %55, ptr noundef %56, i32 noundef %57)
  %59 = icmp ne i32 %58, 0
  br i1 %59, label %60, label %61

60:                                               ; preds = %54
  store ptr null, ptr %10, align 8, !tbaa !5
  br label %61

61:                                               ; preds = %60, %54
  call void @llvm.lifetime.end.p0(i64 4, ptr %12) #15
  call void @llvm.lifetime.end.p0(i64 4, ptr %11) #15
  br label %62

62:                                               ; preds = %61, %4
  %63 = load ptr, ptr %10, align 8, !tbaa !5
  %64 = icmp ne ptr %63, null
  br i1 %64, label %65, label %114

65:                                               ; preds = %62
  %66 = load ptr, ptr getelementptr inbounds nuw (%struct.redisServer, ptr @server, i32 0, i32 63), align 8, !tbaa !53
  %67 = icmp ne ptr %66, null
  br i1 %67, label %68, label %84

68:                                               ; preds = %65
  %69 = load ptr, ptr getelementptr inbounds nuw (%struct.redisServer, ptr @server, i32 0, i32 63), align 8, !tbaa !53
  %70 = getelementptr inbounds nuw %struct.client, ptr %69, i32 0, i32 1
  %71 = load i64, ptr %70, align 8, !tbaa !54
  %72 = and i64 %71, 35184372088832
  %73 = icmp ne i64 %72, 0
  br i1 %73, label %74, label %84

74:                                               ; preds = %68
  %75 = load ptr, ptr getelementptr inbounds nuw (%struct.redisServer, ptr @server, i32 0, i32 64), align 8, !tbaa !63
  %76 = getelementptr inbounds nuw %struct.client, ptr %75, i32 0, i32 21
  %77 = load ptr, ptr %76, align 8, !tbaa !64
  %78 = getelementptr inbounds nuw %struct.redisCommand, ptr %77, i32 0, i32 12
  %79 = load ptr, ptr %78, align 8, !tbaa !65
  %80 = icmp ne ptr %79, @touchCommand
  br i1 %80, label %81, label %84

81:                                               ; preds = %74
  %82 = load i32, ptr %7, align 4, !tbaa !14
  %83 = or i32 %82, 1
  store i32 %83, ptr %7, align 4, !tbaa !14
  br label %84

84:                                               ; preds = %81, %74, %68, %65
  %85 = call i32 @hasActiveChildProcess()
  %86 = icmp ne i32 %85, 0
  br i1 %86, label %106, label %87

87:                                               ; preds = %84
  %88 = load i32, ptr %7, align 4, !tbaa !14
  %89 = and i32 %88, 1
  %90 = icmp ne i32 %89, 0
  br i1 %90, label %106, label %91

91:                                               ; preds = %87
  %92 = load i32, ptr getelementptr inbounds nuw (%struct.redisServer, ptr @server, i32 0, i32 333), align 8, !tbaa !71
  %93 = and i32 %92, 2
  %94 = icmp ne i32 %93, 0
  br i1 %94, label %95, label %97

95:                                               ; preds = %91
  %96 = load ptr, ptr %10, align 8, !tbaa !5
  call void @updateLFU(ptr noundef %96)
  br label %105

97:                                               ; preds = %91
  %98 = call i32 @LRU_CLOCK()
  %99 = load ptr, ptr %10, align 8, !tbaa !5
  %100 = load i32, ptr %99, align 8
  %101 = and i32 %98, 16777215
  %102 = shl i32 %101, 8
  %103 = and i32 %100, 255
  %104 = or i32 %103, %102
  store i32 %104, ptr %99, align 8
  br label %105

105:                                              ; preds = %97, %95
  br label %106

106:                                              ; preds = %105, %87, %84
  %107 = load i32, ptr %7, align 4, !tbaa !14
  %108 = and i32 %107, 12
  %109 = icmp ne i32 %108, 0
  br i1 %109, label %113, label %110

110:                                              ; preds = %106
  %111 = load i64, ptr getelementptr inbounds nuw (%struct.redisServer, ptr @server, i32 0, i32 104), align 8, !tbaa !72
  %112 = add nsw i64 %111, 1
  store i64 %112, ptr getelementptr inbounds nuw (%struct.redisServer, ptr @server, i32 0, i32 104), align 8, !tbaa !72
  br label %113

113:                                              ; preds = %110, %106
  br label %131

114:                                              ; preds = %62
  %115 = load i32, ptr %7, align 4, !tbaa !14
  %116 = and i32 %115, 10
  %117 = icmp ne i32 %116, 0
  br i1 %117, label %123, label %118

118:                                              ; preds = %114
  %119 = load ptr, ptr %6, align 8, !tbaa !5
  %120 = load ptr, ptr %5, align 8, !tbaa !12
  %121 = getelementptr inbounds nuw %struct.redisDb, ptr %120, i32 0, i32 7
  %122 = load i32, ptr %121, align 8, !tbaa !73
  call void @notifyKeyspaceEvent(i32 noundef 2048, ptr noundef @.str, ptr noundef %119, i32 noundef %122)
  br label %123

123:                                              ; preds = %118, %114
  %124 = load i32, ptr %7, align 4, !tbaa !14
  %125 = and i32 %124, 12
  %126 = icmp ne i32 %125, 0
  br i1 %126, label %130, label %127

127:                                              ; preds = %123
  %128 = load i64, ptr getelementptr inbounds nuw (%struct.redisServer, ptr @server, i32 0, i32 105), align 8, !tbaa !74
  %129 = add nsw i64 %128, 1
  store i64 %129, ptr getelementptr inbounds nuw (%struct.redisServer, ptr @server, i32 0, i32 105), align 8, !tbaa !74
  br label %130

130:                                              ; preds = %127, %123
  br label %131

131:                                              ; preds = %130, %113
  %132 = load ptr, ptr %10, align 8, !tbaa !5
  %133 = icmp ne ptr %132, null
  br i1 %133, label %134, label %140

134:                                              ; preds = %131
  %135 = load ptr, ptr %8, align 8, !tbaa !23
  %136 = icmp ne ptr %135, null
  br i1 %136, label %137, label %140

137:                                              ; preds = %134
  %138 = load ptr, ptr %9, align 8, !tbaa !27
  %139 = load ptr, ptr %8, align 8, !tbaa !23
  store ptr %138, ptr %139, align 8, !tbaa !27
  br label %140

140:                                              ; preds = %137, %134, %131
  %141 = load ptr, ptr %10, align 8, !tbaa !5
  call void @llvm.lifetime.end.p0(i64 8, ptr %10) #15
  call void @llvm.lifetime.end.p0(i64 8, ptr %9) #15
  ret ptr %141
}