; Function Attrs: nounwind uwtable
define dso_local ptr @lookupKey(ptr noundef %0, ptr noundef %1, i32 noundef %2, ptr noundef writeonly captures(address_is_null) %3) local_unnamed_addr #0 {
  %5 = getelementptr inbounds nuw i8, ptr %1, i64 8
  %6 = load ptr, ptr %5, align 8, !tbaa !18
  %7 = load ptr, ptr %0, align 8, !tbaa !6
  %8 = load ptr, ptr getelementptr inbounds nuw (i8, ptr @server, i64 1480), align 8, !tbaa !20
  %.not.i.i.i = icmp eq ptr %8, null
  br i1 %.not.i.i.i, label %17, label %9

9:                                                ; preds = %4
  %10 = getelementptr inbounds nuw i8, ptr %8, i64 232
  %11 = load i32, ptr %10, align 8, !tbaa !44
  %12 = icmp sgt i32 %11, -1
  br i1 %12, label %13, label %17

13:                                               ; preds = %9
  %14 = getelementptr inbounds nuw i8, ptr %8, i64 8
  %15 = load i64, ptr %14, align 8, !tbaa !55
  %16 = and i64 %15, 536870912
  %.not3.i.i.i = icmp eq i64 %16, 0
  br i1 %.not3.i.i.i, label %17, label %dbFind.exit

17:                                               ; preds = %13, %9, %4
  %18 = tail call i32 @calculateKeySlot(ptr noundef %6)
  br label %dbFind.exit

dbFind.exit:                                      ; preds = %13, %17
  %.0.i.i.i = phi i32 [ %18, %17 ], [ %11, %13 ]
  %19 = tail call ptr @kvstoreDictFind(ptr noundef %7, i32 noundef %.0.i.i.i, ptr noundef %6) #20
  %.not = icmp eq ptr %19, null
  br i1 %.not, label %.thread, label %20

20:                                               ; preds = %dbFind.exit
  %21 = tail call ptr @dictGetVal(ptr noundef nonnull %19) #20
  %22 = load ptr, ptr getelementptr inbounds nuw (i8, ptr @server, i64 7264), align 8, !tbaa !56
  %23 = icmp eq ptr %22, null
  %24 = load i32, ptr getelementptr inbounds nuw (i8, ptr @server, i64 7388), align 4
  %25 = icmp eq i32 %24, 0
  %.not64 = select i1 %23, i1 true, i1 %25
  %26 = and i32 %2, 8
  %27 = icmp ne i32 %26, 0
  %or.cond.not = select i1 %27, i1 %.not64, i1 false
  %spec.select = zext i1 %or.cond.not to i32
  %28 = lshr i32 %2, 3
  %.1 = and i32 %28, 6
  %.2 = or disjoint i32 %.1, %spec.select
  %29 = tail call i32 @expireIfNeeded(ptr noundef nonnull %0, ptr noundef nonnull %1, i32 noundef %.2)
  %.not39 = icmp eq i32 %29, 0
  %30 = icmp ne ptr %21, null
  %or.cond59 = select i1 %.not39, i1 %30, i1 false
  br i1 %or.cond59, label %31, label %.thread

31:                                               ; preds = %20
  %32 = load ptr, ptr getelementptr inbounds nuw (i8, ptr @server, i64 1480), align 8, !tbaa !20
  %.not42 = icmp eq ptr %32, null
  br i1 %.not42, label %44, label %33

33:                                               ; preds = %31
  %34 = getelementptr inbounds nuw i8, ptr %32, i64 8
  %35 = load i64, ptr %34, align 8, !tbaa !55
  %36 = and i64 %35, 35184372088832
  %.not43 = icmp eq i64 %36, 0
  br i1 %.not43, label %44, label %37

37:                                               ; preds = %33
  %38 = load ptr, ptr getelementptr inbounds nuw (i8, ptr @server, i64 1488), align 8, !tbaa !57
  %39 = getelementptr inbounds nuw i8, ptr %38, i64 128
  %40 = load ptr, ptr %39, align 8, !tbaa !58
  %41 = getelementptr inbounds nuw i8, ptr %40, i64 96
  %42 = load ptr, ptr %41, align 8, !tbaa !59
  %.not44 = icmp ne ptr %42, @touchCommand
  %43 = zext i1 %.not44 to i32
  %spec.select49 = or i32 %2, %43
  br label %44

44:                                               ; preds = %37, %33, %31
  %.031 = phi i32 [ %2, %33 ], [ %2, %31 ], [ %spec.select49, %37 ]
  %45 = tail call i32 @hasActiveChildProcess() #20
  %46 = and i32 %.031, 1
  %47 = or i32 %45, %46
  %or.cond50 = icmp eq i32 %47, 0
  br i1 %or.cond50, label %48, label %70

48:                                               ; preds = %44
  %49 = load i32, ptr getelementptr inbounds nuw (i8, ptr @server, i64 7536), align 8, !tbaa !65
  %50 = and i32 %49, 2
  %.not47 = icmp eq i32 %50, 0
  br i1 %.not47, label %64, label %51

51:                                               ; preds = %48
  %52 = tail call i64 @LFUDecrAndReturn(ptr noundef nonnull %21) #20
  %53 = trunc i64 %52 to i8
  %54 = tail call zeroext i8 @LFULogIncr(i8 noundef zeroext %53) #20
  %55 = zext i8 %54 to i64
  %56 = tail call i64 @LFUGetTimeInMinutes() #20
  %57 = shl i64 %56, 8
  %58 = or disjoint i64 %57, %55
  %59 = trunc i64 %58 to i32
  %60 = load i32, ptr %21, align 8
  %61 = shl i32 %59, 8
  %62 = and i32 %60, 255
  %63 = or disjoint i32 %61, %62
  br label %.sink.split

64:                                               ; preds = %48
  %65 = tail call i32 @LRU_CLOCK() #20
  %66 = load i32, ptr %21, align 8
  %67 = shl i32 %65, 8
  %68 = and i32 %66, 255
  %69 = or disjoint i32 %68, %67
  br label %.sink.split

.sink.split:                                      ; preds = %64, %51
  %.sink = phi i32 [ %63, %51 ], [ %69, %64 ]
  store i32 %.sink, ptr %21, align 8
  br label %70

70:                                               ; preds = %.sink.split, %44
  %71 = and i32 %.031, 12
  %.not48 = icmp eq i32 %71, 0
  br i1 %.not48, label %72, label %84

72:                                               ; preds = %70
  %73 = load i64, ptr getelementptr inbounds nuw (i8, ptr @server, i64 2568), align 8, !tbaa !66
  %74 = add nsw i64 %73, 1
  store i64 %74, ptr getelementptr inbounds nuw (i8, ptr @server, i64 2568), align 8, !tbaa !66
  br label %84

.thread:                                          ; preds = %dbFind.exit, %20
  %75 = and i32 %2, 10
  %.not40 = icmp eq i32 %75, 0
  br i1 %.not40, label %76, label %79

76:                                               ; preds = %.thread
  %77 = getelementptr inbounds nuw i8, ptr %0, i64 56
  %78 = load i32, ptr %77, align 8, !tbaa !67
  tail call void @notifyKeyspaceEvent(i32 noundef 2048, ptr noundef nonnull @.str, ptr noundef nonnull %1, i32 noundef %78) #20
  br label %79

79:                                               ; preds = %76, %.thread
  %80 = and i32 %2, 12
  %.not41 = icmp eq i32 %80, 0
  br i1 %.not41, label %81, label %.thread55

81:                                               ; preds = %79
  %82 = load i64, ptr getelementptr inbounds nuw (i8, ptr @server, i64 2576), align 8, !tbaa !68
  %83 = add nsw i64 %82, 1
  store i64 %83, ptr getelementptr inbounds nuw (i8, ptr @server, i64 2576), align 8, !tbaa !68
  br label %.thread55

84:                                               ; preds = %70, %72
  %.not65 = icmp eq ptr %3, null
  br i1 %.not65, label %.thread55, label %85

85:                                               ; preds = %84
  store ptr %19, ptr %3, align 8, !tbaa !69
  br label %.thread55

.thread55:                                        ; preds = %81, %79, %85, %84
  %.0325258 = phi ptr [ %21, %85 ], [ %21, %84 ], [ null, %79 ], [ null, %81 ]
  ret ptr %.0325258
}